; Function Attrs: nounwind uwtable
define noalias noundef nonnull ptr @l_Lean_Elab_Tactic_BVDecide_Frontend_ReifiedBVLogical_mkBoolConst(i8 noundef zeroext %0, ptr readnone captures(none) %1, ptr readnone captures(none) %2, ptr readnone captures(none) %3, ptr readnone captures(none) %4, ptr readnone captures(none) %5, ptr noundef %6) local_unnamed_addr #0 {
  tail call void @lean_inc_heartbeat() #5
  %8 = tail call noalias ptr @mi_malloc_small(i64 noundef 16) #5
  %9 = icmp eq ptr %8, null
  br i1 %9, label %10, label %lean_alloc_ctor.exit

10:                                               ; preds = %7
  tail call void @lean_internal_panic_out_of_memory() #6
  unreachable

lean_alloc_ctor.exit:                             ; preds = %7
  %11 = getelementptr inbounds nuw i8, ptr %8, i64 4
  %12 = getelementptr inbounds nuw i8, ptr %8, i64 8
  store i64 0, ptr %12, align 8, !tbaa !12
  store i32 1, ptr %8, align 4, !tbaa !8
  store i32 16777232, ptr %11, align 4
  store i8 %0, ptr %12, align 1, !tbaa !16
  %13 = icmp eq i8 %0, 0
  %14 = load ptr, ptr @l_Lean_Elab_Tactic_BVDecide_Frontend_ReifiedBVLogical_mkBoolConst___closed__4, align 8, !tbaa !4
  br i1 %13, label %15, label %29

15:                                               ; preds = %lean_alloc_ctor.exit
  %16 = load ptr, ptr @l_Lean_Elab_Tactic_BVDecide_Frontend_ReifiedBVLogical_mkBoolConst___closed__7, align 8, !tbaa !4
  %17 = load ptr, ptr @l_Lean_Elab_Tactic_BVDecide_Frontend_ReifiedBVLogical_mkBoolConst___closed__8, align 8, !tbaa !4
  tail call void @lean_inc_heartbeat() #5
  %18 = tail call noalias ptr @mi_malloc_small(i64 noundef 40) #5
  %19 = icmp eq ptr %18, null
  br i1 %19, label %20, label %lean_alloc_ctor.exit29

20:                                               ; preds = %15
  tail call void @lean_internal_panic_out_of_memory() #6
  unreachable

lean_alloc_ctor.exit29:                           ; preds = %15
  %21 = getelementptr inbounds nuw i8, ptr %18, i64 4
  store i32 1, ptr %18, align 4, !tbaa !8
  store i32 262184, ptr %21, align 4
  %22 = getelementptr inbounds nuw i8, ptr %18, i64 8
  store ptr %8, ptr %22, align 8, !tbaa !4
  %23 = getelementptr inbounds nuw i8, ptr %18, i64 16
  store ptr %16, ptr %23, align 8, !tbaa !4
  %24 = getelementptr inbounds nuw i8, ptr %18, i64 24
  store ptr %14, ptr %24, align 8, !tbaa !4
  %25 = getelementptr inbounds nuw i8, ptr %18, i64 32
  store ptr %17, ptr %25, align 8, !tbaa !4
  tail call void @lean_inc_heartbeat() #5
  %26 = tail call noalias ptr @mi_malloc_small(i64 noundef 24) #5
  %27 = icmp eq ptr %26, null
  br i1 %27, label %28, label %lean_alloc_ctor.exit30

28:                                               ; preds = %lean_alloc_ctor.exit29
  tail call void @lean_internal_panic_out_of_memory() #6
  unreachable

29:                                               ; preds = %lean_alloc_ctor.exit
  %30 = load ptr, ptr @l_Lean_Elab_Tactic_BVDecide_Frontend_ReifiedBVLogical_mkBoolConst___closed__11, align 8, !tbaa !4
  %31 = load ptr, ptr @l_Lean_Elab_Tactic_BVDecide_Frontend_ReifiedBVLogical_mkBoolConst___closed__12, align 8, !tbaa !4
  tail call void @lean_inc_heartbeat() #5
  %32 = tail call noalias ptr @mi_malloc_small(i64 noundef 40) #5
  %33 = icmp eq ptr %32, null
  br i1 %33, label %34, label %lean_alloc_ctor.exit31

34:                                               ; preds = %29
  tail call void @lean_internal_panic_out_of_memory() #6
  unreachable

lean_alloc_ctor.exit31:                           ; preds = %29
  %35 = getelementptr inbounds nuw i8, ptr %32, i64 4
  store i32 1, ptr %32, align 4, !tbaa !8
  store i32 262184, ptr %35, align 4
  %36 = getelementptr inbounds nuw i8, ptr %32, i64 8
  store ptr %8, ptr %36, align 8, !tbaa !4
  %37 = getelementptr inbounds nuw i8, ptr %32, i64 16
  store ptr %30, ptr %37, align 8, !tbaa !4
  %38 = getelementptr inbounds nuw i8, ptr %32, i64 24
  store ptr %14, ptr %38, align 8, !tbaa !4
  %39 = getelementptr inbounds nuw i8, ptr %32, i64 32
  store ptr %31, ptr %39, align 8, !tbaa !4
  tail call void @lean_inc_heartbeat() #5
  %40 = tail call noalias ptr @mi_malloc_small(i64 noundef 24) #5
  %41 = icmp eq ptr %40, null
  br i1 %41, label %42, label %lean_alloc_ctor.exit30

42:                                               ; preds = %lean_alloc_ctor.exit31
  tail call void @lean_internal_panic_out_of_memory() #6
  unreachable

lean_alloc_ctor.exit30:                           ; preds = %lean_alloc_ctor.exit31, %lean_alloc_ctor.exit29
  %.sink38 = phi ptr [ %26, %lean_alloc_ctor.exit29 ], [ %40, %lean_alloc_ctor.exit31 ]
  %.sink = phi ptr [ %18, %lean_alloc_ctor.exit29 ], [ %32, %lean_alloc_ctor.exit31 ]
  %43 = getelementptr inbounds nuw i8, ptr %.sink38, i64 4
  store i32 1, ptr %.sink38, align 4, !tbaa !8
  store i32 131096, ptr %43, align 4
  %44 = getelementptr inbounds nuw i8, ptr %.sink38, i64 8
  store ptr %.sink, ptr %44, align 8, !tbaa !4
  %45 = getelementptr inbounds nuw i8, ptr %.sink38, i64 16
  store ptr %6, ptr %45, align 8, !tbaa !4
  ret ptr %.sink38
}